target datalayout = "e-m:e-p270:32:32-p271:32:32-p272:64:64-i64:64-i128:128-f80:128-n8:16:32:64-S128"
target triple = "x86_64-pc-linux-gnu"

%struct.AVCodecContext = type { ptr, i32, i32, ptr, i32, i32, ptr, ptr, ptr, i64, i32, i32, ptr, i32, %struct.AVRational, %struct.AVRational, %struct.AVRational, i32, i32, i32, i32, i32, %struct.AVRational, i32, i32, i32, i32, i32, i32, i32, i32, i32, i32, i32, ptr, ptr, i32, float, float, float, float, float, float, float, float, float, i32, i32, i32, i32, i32, i32, i32, i32, i32, i32, i32, i32, ptr, ptr, ptr, i32, i32, i32, i32, i32, i32, i32, i32, i32, i32, %struct.AVChannelLayout, i32, i32, i32, i32, i32, i32, i32, i32, ptr, i32, i32, i32, float, float, i32, i32, i32, i32, i32, ptr, i64, i64, float, float, i32, i32, ptr, ptr, i32, i32, i32, i32, i32, ptr, ptr, ptr, ptr, i32, i32, [8 x i64], i32, i32, i32, i32, i32, i32, i32, ptr, ptr, i32, i32, i32, i32, i32, i32, i32, i32, i32, i32, ptr, ptr, i32, i32, ptr, ptr, ptr, ptr, i32, i32, i64, i32, i32, i64, ptr, i64, ptr, i32, ptr, i32 }
%struct.AVRational = type { i32, i32 }
%struct.AVChannelLayout = type { i32, i32, %union.anon.0, ptr }
%union.anon.0 = type { i64 }
%struct.IpvideoContext = type { ptr, %struct.HpelDSPContext, ptr, ptr, ptr, ptr, ptr, i32, ptr, i32, i32, %struct.GetByteContext, %struct.GetByteContext, ptr, i32, i32, i32, [256 x i32] }
%struct.HpelDSPContext = type { [4 x [4 x ptr]], [4 x [4 x ptr]], [4 x [4 x ptr]], [4 x ptr] }
%struct.GetByteContext = type { ptr, ptr, ptr }
%struct.AVFrame = type { [8 x ptr], [8 x i32], ptr, i32, i32, i32, i32, i32, %struct.AVRational, i64, i64, %struct.AVRational, i32, ptr, i32, i32, [8 x ptr], ptr, i32, ptr, i32, i32, i32, i32, i32, i32, i32, i64, ptr, i32, ptr, ptr, i64, i64, i64, i64, ptr, %struct.AVChannelLayout, i64 }

; Function Attrs: cold nounwind optsize uwtable
define internal i32 @ipvideo_decode_init(ptr noundef %0) #0 {
  %2 = alloca i32, align 4
  %3 = alloca ptr, align 8
  %4 = alloca ptr, align 8
  %5 = alloca i32, align 4
  store ptr %0, ptr %3, align 8, !tbaa !4
  call void @llvm.lifetime.start.p0(i64 8, ptr %4) #11
  %6 = load ptr, ptr %3, align 8, !tbaa !4
  %7 = getelementptr inbounds nuw %struct.AVCodecContext, ptr %6, i32 0, i32 6
  %8 = load ptr, ptr %7, align 8, !tbaa !9
  store ptr %8, ptr %4, align 8, !tbaa !29
  %9 = load ptr, ptr %3, align 8, !tbaa !4
  %10 = load ptr, ptr %4, align 8, !tbaa !29
  %11 = getelementptr inbounds nuw %struct.IpvideoContext, ptr %10, i32 0, i32 0
  store ptr %9, ptr %11, align 8, !tbaa !31
  %12 = load ptr, ptr %3, align 8, !tbaa !4
  %13 = getelementptr inbounds nuw %struct.AVCodecContext, ptr %12, i32 0, i32 114
  %14 = load i32, ptr %13, align 8, !tbaa !36
  %15 = icmp eq i32 %14, 16
  %16 = zext i1 %15 to i32
  %17 = load ptr, ptr %4, align 8, !tbaa !29
  %18 = getelementptr inbounds nuw %struct.IpvideoContext, ptr %17, i32 0, i32 10
  store i32 %16, ptr %18, align 4, !tbaa !37
  %19 = load ptr, ptr %4, align 8, !tbaa !29
  %20 = getelementptr inbounds nuw %struct.IpvideoContext, ptr %19, i32 0, i32 10
  %21 = load i32, ptr %20, align 4, !tbaa !37
  %22 = icmp ne i32 %21, 0
  %23 = select i1 %22, i32 39, i32 11
  %24 = load ptr, ptr %3, align 8, !tbaa !4
  %25 = getelementptr inbounds nuw %struct.AVCodecContext, ptr %24, i32 0, i32 23
  store i32 %23, ptr %25, align 8, !tbaa !38
  %26 = load ptr, ptr %4, align 8, !tbaa !29
  %27 = getelementptr inbounds nuw %struct.IpvideoContext, ptr %26, i32 0, i32 1
  %28 = load ptr, ptr %3, align 8, !tbaa !4
  %29 = getelementptr inbounds nuw %struct.AVCodecContext, ptr %28, i32 0, i32 10
  %30 = load i32, ptr %29, align 8, !tbaa !39
  call void @ff_hpeldsp_init(ptr noundef %27, i32 noundef %30)
  %31 = call ptr @av_frame_alloc()
  %32 = load ptr, ptr %4, align 8, !tbaa !29
  %33 = getelementptr inbounds nuw %struct.IpvideoContext, ptr %32, i32 0, i32 3
  store ptr %31, ptr %33, align 8, !tbaa !40
  %34 = call ptr @av_frame_alloc()
  %35 = load ptr, ptr %4, align 8, !tbaa !29
  %36 = getelementptr inbounds nuw %struct.IpvideoContext, ptr %35, i32 0, i32 2
  store ptr %34, ptr %36, align 8, !tbaa !41
  %37 = call ptr @av_frame_alloc()
  %38 = load ptr, ptr %4, align 8, !tbaa !29
  %39 = getelementptr inbounds nuw %struct.IpvideoContext, ptr %38, i32 0, i32 4
  store ptr %37, ptr %39, align 8, !tbaa !42
  %40 = call ptr @av_frame_alloc()
  %41 = load ptr, ptr %4, align 8, !tbaa !29
  %42 = getelementptr inbounds nuw %struct.IpvideoContext, ptr %41, i32 0, i32 5
  store ptr %40, ptr %42, align 8, !tbaa !43
  %43 = load ptr, ptr %4, align 8, !tbaa !29
  %44 = getelementptr inbounds nuw %struct.IpvideoContext, ptr %43, i32 0, i32 3
  %45 = load ptr, ptr %44, align 8, !tbaa !40
  %46 = icmp ne ptr %45, null
  br i1 %46, label %47, label %62

47:                                               ; preds = %1
  %48 = load ptr, ptr %4, align 8, !tbaa !29
  %49 = getelementptr inbounds nuw %struct.IpvideoContext, ptr %48, i32 0, i32 2
  %50 = load ptr, ptr %49, align 8, !tbaa !41
  %51 = icmp ne ptr %50, null
  br i1 %51, label %52, label %62

52:                                               ; preds = %47
  %53 = load ptr, ptr %4, align 8, !tbaa !29
  %54 = getelementptr inbounds nuw %struct.IpvideoContext, ptr %53, i32 0, i32 4
  %55 = load ptr, ptr %54, align 8, !tbaa !42
  %56 = icmp ne ptr %55, null
  br i1 %56, label %57, label %62

57:                                               ; preds = %52
  %58 = load ptr, ptr %4, align 8, !tbaa !29
  %59 = getelementptr inbounds nuw %struct.IpvideoContext, ptr %58, i32 0, i32 5
  %60 = load ptr, ptr %59, align 8, !tbaa !43
  %61 = icmp ne ptr %60, null
  br i1 %61, label %63, label %62

62:                                               ; preds = %57, %52, %47, %1
  store i32 -12, ptr %2, align 4
  store i32 1, ptr %5, align 4
  br label %106

63:                                               ; preds = %57
  %64 = load ptr, ptr %3, align 8, !tbaa !4
  %65 = getelementptr inbounds nuw %struct.AVCodecContext, ptr %64, i32 0, i32 18
  %66 = load i32, ptr %65, align 8, !tbaa !44
  %67 = load ptr, ptr %4, align 8, !tbaa !29
  %68 = getelementptr inbounds nuw %struct.IpvideoContext, ptr %67, i32 0, i32 4
  %69 = load ptr, ptr %68, align 8, !tbaa !42
  %70 = getelementptr inbounds nuw %struct.AVFrame, ptr %69, i32 0, i32 3
  store i32 %66, ptr %70, align 8, !tbaa !45
  %71 = load ptr, ptr %3, align 8, !tbaa !4
  %72 = getelementptr inbounds nuw %struct.AVCodecContext, ptr %71, i32 0, i32 18
  %73 = load i32, ptr %72, align 8, !tbaa !44
  %74 = load ptr, ptr %4, align 8, !tbaa !29
  %75 = getelementptr inbounds nuw %struct.IpvideoContext, ptr %74, i32 0, i32 5
  %76 = load ptr, ptr %75, align 8, !tbaa !43
  %77 = getelementptr inbounds nuw %struct.AVFrame, ptr %76, i32 0, i32 3
  store i32 %73, ptr %77, align 8, !tbaa !45
  %78 = load ptr, ptr %3, align 8, !tbaa !4
  %79 = getelementptr inbounds nuw %struct.AVCodecContext, ptr %78, i32 0, i32 19
  %80 = load i32, ptr %79, align 4, !tbaa !50
  %81 = load ptr, ptr %4, align 8, !tbaa !29
  %82 = getelementptr inbounds nuw %struct.IpvideoContext, ptr %81, i32 0, i32 4
  %83 = load ptr, ptr %82, align 8, !tbaa !42
  %84 = getelementptr inbounds nuw %struct.AVFrame, ptr %83, i32 0, i32 4
  store i32 %80, ptr %84, align 4, !tbaa !51
  %85 = load ptr, ptr %3, align 8, !tbaa !4
  %86 = getelementptr inbounds nuw %struct.AVCodecContext, ptr %85, i32 0, i32 19
  %87 = load i32, ptr %86, align 4, !tbaa !50
  %88 = load ptr, ptr %4, align 8, !tbaa !29
  %89 = getelementptr inbounds nuw %struct.IpvideoContext, ptr %88, i32 0, i32 5
  %90 = load ptr, ptr %89, align 8, !tbaa !43
  %91 = getelementptr inbounds nuw %struct.AVFrame, ptr %90, i32 0, i32 4
  store i32 %87, ptr %91, align 4, !tbaa !51
  %92 = load ptr, ptr %3, align 8, !tbaa !4
  %93 = getelementptr inbounds nuw %struct.AVCodecContext, ptr %92, i32 0, i32 23
  %94 = load i32, ptr %93, align 8, !tbaa !38
  %95 = load ptr, ptr %4, align 8, !tbaa !29
  %96 = getelementptr inbounds nuw %struct.IpvideoContext, ptr %95, i32 0, i32 4
  %97 = load ptr, ptr %96, align 8, !tbaa !42
  %98 = getelementptr inbounds nuw %struct.AVFrame, ptr %97, i32 0, i32 6
  store i32 %94, ptr %98, align 4, !tbaa !52
  %99 = load ptr, ptr %3, align 8, !tbaa !4
  %100 = getelementptr inbounds nuw %struct.AVCodecContext, ptr %99, i32 0, i32 23
  %101 = load i32, ptr %100, align 8, !tbaa !38
  %102 = load ptr, ptr %4, align 8, !tbaa !29
  %103 = getelementptr inbounds nuw %struct.IpvideoContext, ptr %102, i32 0, i32 5
  %104 = load ptr, ptr %103, align 8, !tbaa !43
  %105 = getelementptr inbounds nuw %struct.AVFrame, ptr %104, i32 0, i32 6
  store i32 %101, ptr %105, align 4, !tbaa !52
  store i32 0, ptr %2, align 4
  store i32 1, ptr %5, align 4
  br label %106

106:                                              ; preds = %63, %62
  call void @llvm.lifetime.end.p0(i64 8, ptr %4) #11
  %107 = load i32, ptr %2, align 4
  ret i32 %107
}