; Function Attrs: cold nounwind optsize uwtable
define internal range(i32 -12, 1) i32 @ipvideo_decode_init(ptr noundef %0) #0 {
  %2 = getelementptr inbounds nuw i8, ptr %0, i64 32
  %3 = load ptr, ptr %2, align 8, !tbaa !4
  store ptr %0, ptr %3, align 8, !tbaa !27
  %4 = getelementptr inbounds nuw i8, ptr %0, i64 648
  %5 = load i32, ptr %4, align 8, !tbaa !33
  %6 = icmp eq i32 %5, 16
  %7 = zext i1 %6 to i32
  %8 = getelementptr inbounds nuw i8, ptr %3, i64 484
  store i32 %7, ptr %8, align 4, !tbaa !34
  %9 = select i1 %6, i32 39, i32 11
  %10 = getelementptr inbounds nuw i8, ptr %0, i64 136
  store i32 %9, ptr %10, align 8, !tbaa !35
  %11 = getelementptr inbounds nuw i8, ptr %3, i64 8
  %12 = getelementptr inbounds nuw i8, ptr %0, i64 64
  %13 = load i32, ptr %12, align 8, !tbaa !36
  tail call void @ff_hpeldsp_init(ptr noundef nonnull %11, i32 noundef %13) #9
  %14 = tail call ptr @av_frame_alloc() #9
  %15 = getelementptr inbounds nuw i8, ptr %3, i64 432
  store ptr %14, ptr %15, align 8, !tbaa !37
  %16 = tail call ptr @av_frame_alloc() #9
  %17 = getelementptr inbounds nuw i8, ptr %3, i64 424
  store ptr %16, ptr %17, align 8, !tbaa !38
  %18 = tail call ptr @av_frame_alloc() #9
  %19 = getelementptr inbounds nuw i8, ptr %3, i64 440
  store ptr %18, ptr %19, align 8, !tbaa !39
  %20 = tail call ptr @av_frame_alloc() #9
  %21 = getelementptr inbounds nuw i8, ptr %3, i64 448
  store ptr %20, ptr %21, align 8, !tbaa !40
  %22 = load ptr, ptr %15, align 8, !tbaa !37
  %.not = icmp eq ptr %22, null
  br i1 %.not, label %39, label %23

23:                                               ; preds = %1
  %24 = load ptr, ptr %17, align 8, !tbaa !38
  %.not30 = icmp eq ptr %24, null
  br i1 %.not30, label %39, label %25

25:                                               ; preds = %23
  %26 = load ptr, ptr %19, align 8, !tbaa !39
  %.not31 = icmp eq ptr %26, null
  %.not32 = icmp eq ptr %20, null
  %or.cond = select i1 %.not31, i1 true, i1 %.not32
  br i1 %or.cond, label %39, label %27

27:                                               ; preds = %25
  %28 = getelementptr inbounds nuw i8, ptr %0, i64 112
  %29 = load i32, ptr %28, align 8, !tbaa !41
  %30 = getelementptr inbounds nuw i8, ptr %26, i64 104
  store i32 %29, ptr %30, align 8, !tbaa !42
  %31 = getelementptr inbounds nuw i8, ptr %20, i64 104
  store i32 %29, ptr %31, align 8, !tbaa !42
  %32 = getelementptr inbounds nuw i8, ptr %0, i64 116
  %33 = load i32, ptr %32, align 4, !tbaa !47
  %34 = getelementptr inbounds nuw i8, ptr %26, i64 108
  store i32 %33, ptr %34, align 4, !tbaa !48
  %35 = getelementptr inbounds nuw i8, ptr %20, i64 108
  store i32 %33, ptr %35, align 4, !tbaa !48
  %36 = load i32, ptr %10, align 8, !tbaa !35
  %37 = getelementptr inbounds nuw i8, ptr %26, i64 116
  store i32 %36, ptr %37, align 4, !tbaa !49
  %38 = getelementptr inbounds nuw i8, ptr %20, i64 116
  store i32 %36, ptr %38, align 4, !tbaa !49
  br label %39

39:                                               ; preds = %1, %23, %25, %27
  %.0 = phi i32 [ 0, %27 ], [ -12, %25 ], [ -12, %23 ], [ -12, %1 ]
  ret i32 %.0
}